target datalayout = "e-m:e-p270:32:32-p271:32:32-p272:64:64-i64:64-i128:128-f80:128-n8:16:32:64-S128"
target triple = "x86_64-pc-linux-gnu"

%struct.Abc_TtHieMan_t_ = type { i32, i32, [5 x ptr], [5 x ptr], [5 x i32], ptr }
%struct.Vec_Mem_t_ = type { i32, i32, i32, i32, i32, i32, ptr, ptr, ptr }
%struct.Vec_Int_t_ = type { i32, i32, ptr }

; Function Attrs: inlinehint nounwind uwtable
define internal ptr @Vec_IntStartFull(i32 noundef %0) #2 {
  %2 = alloca i32, align 4
  %3 = alloca ptr, align 8
  store i32 %0, ptr %2, align 4, !tbaa !8
  call void @llvm.lifetime.start.p0(i64 8, ptr %3) #12
  %4 = load i32, ptr %2, align 4, !tbaa !8
  %5 = call ptr @Vec_IntAlloc(i32 noundef %4)
  store ptr %5, ptr %3, align 8, !tbaa !82
  %6 = load i32, ptr %2, align 4, !tbaa !8
  %7 = load ptr, ptr %3, align 8, !tbaa !82
  %8 = getelementptr inbounds nuw %struct.Vec_Int_t_, ptr %7, i32 0, i32 1
  store i32 %6, ptr %8, align 4, !tbaa !93
  %9 = load ptr, ptr %3, align 8, !tbaa !82
  %10 = getelementptr inbounds nuw %struct.Vec_Int_t_, ptr %9, i32 0, i32 2
  %11 = load ptr, ptr %10, align 8, !tbaa !96
  %12 = icmp ne ptr %11, null
  br i1 %12, label %13, label %20

13:                                               ; preds = %1
  %14 = load ptr, ptr %3, align 8, !tbaa !82
  %15 = getelementptr inbounds nuw %struct.Vec_Int_t_, ptr %14, i32 0, i32 2
  %16 = load ptr, ptr %15, align 8, !tbaa !96
  %17 = load i32, ptr %2, align 4, !tbaa !8
  %18 = sext i32 %17 to i64
  %19 = mul i64 4, %18
  call void @llvm.memset.p0.i64(ptr align 4 %16, i8 -1, i64 %19, i1 false)
  br label %20

20:                                               ; preds = %13, %1
  %21 = load ptr, ptr %3, align 8, !tbaa !82
  call void @llvm.lifetime.end.p0(i64 8, ptr %3) #12
  ret ptr %21
}

; Function Attrs: inlinehint nounwind uwtable
define internal i32 @Abc_PrimeCudd(i32 noundef %0) #2 {
  %2 = alloca i32, align 4
  %3 = alloca i32, align 4
  %4 = alloca i32, align 4
  store i32 %0, ptr %2, align 4, !tbaa !8
  call void @llvm.lifetime.start.p0(i64 4, ptr %3) #12
  call void @llvm.lifetime.start.p0(i64 4, ptr %4) #12
  %5 = load i32, ptr %2, align 4, !tbaa !8
  %6 = add i32 %5, -1
  store i32 %6, ptr %2, align 4, !tbaa !8
  br label %7

7:                                                ; preds = %32, %1
  %8 = load i32, ptr %2, align 4, !tbaa !8
  %9 = add i32 %8, 1
  store i32 %9, ptr %2, align 4, !tbaa !8
  %10 = load i32, ptr %2, align 4, !tbaa !8
  %11 = and i32 %10, 1
  %12 = icmp ne i32 %11, 0
  br i1 %12, label %13, label %30

13:                                               ; preds = %7
  store i32 1, ptr %4, align 4, !tbaa !8
  store i32 3, ptr %3, align 4, !tbaa !8
  br label %14

14:                                               ; preds = %26, %13
  %15 = load i32, ptr %3, align 4, !tbaa !8
  %16 = load i32, ptr %3, align 4, !tbaa !8
  %17 = mul nsw i32 %15, %16
  %18 = load i32, ptr %2, align 4, !tbaa !8
  %19 = icmp ule i32 %17, %18
  br i1 %19, label %20, label %29

20:                                               ; preds = %14
  %21 = load i32, ptr %2, align 4, !tbaa !8
  %22 = load i32, ptr %3, align 4, !tbaa !8
  %23 = urem i32 %21, %22
  %24 = icmp eq i32 %23, 0
  br i1 %24, label %25, label %26

25:                                               ; preds = %20
  store i32 0, ptr %4, align 4, !tbaa !8
  br label %29

26:                                               ; preds = %20
  %27 = load i32, ptr %3, align 4, !tbaa !8
  %28 = add nsw i32 %27, 2
  store i32 %28, ptr %3, align 4, !tbaa !8
  br label %14, !llvm.loop !163

29:                                               ; preds = %25, %14
  br label %31

30:                                               ; preds = %7
  store i32 0, ptr %4, align 4, !tbaa !8
  br label %31

31:                                               ; preds = %30, %29
  br label %32

32:                                               ; preds = %31
  %33 = load i32, ptr %4, align 4, !tbaa !8
  %34 = icmp ne i32 %33, 0
  %35 = xor i1 %34, true
  br i1 %35, label %7, label %36, !llvm.loop !164

36:                                               ; preds = %32
  %37 = load i32, ptr %2, align 4, !tbaa !8
  call void @llvm.lifetime.end.p0(i64 4, ptr %4) #12
  call void @llvm.lifetime.end.p0(i64 4, ptr %3) #12
  ret i32 %37
}

; Function Attrs: inlinehint nounwind uwtable
define internal ptr @Vec_IntAlloc(i32 noundef %0) #2 {
  %2 = alloca i32, align 4
  %3 = alloca ptr, align 8
  store i32 %0, ptr %2, align 4, !tbaa !8
  call void @llvm.lifetime.start.p0(i64 8, ptr %3) #12
  %4 = call noalias ptr @malloc(i64 noundef 16) #14
  store ptr %4, ptr %3, align 8, !tbaa !82
  %5 = load i32, ptr %2, align 4, !tbaa !8
  %6 = icmp sgt i32 %5, 0
  br i1 %6, label %7, label %11

7:                                                ; preds = %1
  %8 = load i32, ptr %2, align 4, !tbaa !8
  %9 = icmp slt i32 %8, 16
  br i1 %9, label %10, label %11

10:                                               ; preds = %7
  store i32 16, ptr %2, align 4, !tbaa !8
  br label %11

11:                                               ; preds = %10, %7, %1
  %12 = load ptr, ptr %3, align 8, !tbaa !82
  %13 = getelementptr inbounds nuw %struct.Vec_Int_t_, ptr %12, i32 0, i32 1
  store i32 0, ptr %13, align 4, !tbaa !93
  %14 = load i32, ptr %2, align 4, !tbaa !8
  %15 = load ptr, ptr %3, align 8, !tbaa !82
  %16 = getelementptr inbounds nuw %struct.Vec_Int_t_, ptr %15, i32 0, i32 0
  store i32 %14, ptr %16, align 8, !tbaa !95
  %17 = load ptr, ptr %3, align 8, !tbaa !82
  %18 = getelementptr inbounds nuw %struct.Vec_Int_t_, ptr %17, i32 0, i32 0
  %19 = load i32, ptr %18, align 8, !tbaa !95
  %20 = icmp ne i32 %19, 0
  br i1 %20, label %21, label %28

21:                                               ; preds = %11
  %22 = load ptr, ptr %3, align 8, !tbaa !82
  %23 = getelementptr inbounds nuw %struct.Vec_Int_t_, ptr %22, i32 0, i32 0
  %24 = load i32, ptr %23, align 8, !tbaa !95
  %25 = sext i32 %24 to i64
  %26 = mul i64 4, %25
  %27 = call noalias ptr @malloc(i64 noundef %26) #14
  br label %29

28:                                               ; preds = %11
  br label %29

29:                                               ; preds = %28, %21
  %30 = phi ptr [ %27, %21 ], [ null, %28 ]
  %31 = load ptr, ptr %3, align 8, !tbaa !82
  %32 = getelementptr inbounds nuw %struct.Vec_Int_t_, ptr %31, i32 0, i32 2
  store ptr %30, ptr %32, align 8, !tbaa !96
  %33 = load ptr, ptr %3, align 8, !tbaa !82
  call void @llvm.lifetime.end.p0(i64 8, ptr %3) #12
  ret ptr %33
}

; Function Attrs: inlinehint nounwind uwtable
define internal void @Vec_MemHashAlloc(ptr noundef %0, i32 noundef %1) #2 {
  %3 = alloca ptr, align 8
  %4 = alloca i32, align 4
  store ptr %0, ptr %3, align 8, !tbaa !80
  store i32 %1, ptr %4, align 4, !tbaa !8
  %5 = load i32, ptr %4, align 4, !tbaa !8
  %6 = call i32 @Abc_PrimeCudd(i32 noundef %5)
  %7 = call ptr @Vec_IntStartFull(i32 noundef %6)
  %8 = load ptr, ptr %3, align 8, !tbaa !80
  %9 = getelementptr inbounds nuw %struct.Vec_Mem_t_, ptr %8, i32 0, i32 7
  store ptr %7, ptr %9, align 8, !tbaa !91
  %10 = load i32, ptr %4, align 4, !tbaa !8
  %11 = call ptr @Vec_IntAlloc(i32 noundef %10)
  %12 = load ptr, ptr %3, align 8, !tbaa !80
  %13 = getelementptr inbounds nuw %struct.Vec_Mem_t_, ptr %12, i32 0, i32 8
  store ptr %11, ptr %13, align 8, !tbaa !92
  ret void
}

; Function Attrs: inlinehint nounwind uwtable
define internal ptr @Vec_MemAlloc(i32 noundef %0, i32 noundef %1) #2 {
  %3 = alloca i32, align 4
  %4 = alloca i32, align 4
  %5 = alloca ptr, align 8
  store i32 %0, ptr %3, align 4, !tbaa !8
  store i32 %1, ptr %4, align 4, !tbaa !8
  call void @llvm.lifetime.start.p0(i64 8, ptr %5) #12
  %6 = call noalias ptr @calloc(i64 noundef 1, i64 noundef 48) #13
  store ptr %6, ptr %5, align 8, !tbaa !80
  %7 = load i32, ptr %3, align 4, !tbaa !8
  %8 = load ptr, ptr %5, align 8, !tbaa !80
  %9 = getelementptr inbounds nuw %struct.Vec_Mem_t_, ptr %8, i32 0, i32 0
  store i32 %7, ptr %9, align 8, !tbaa !85
  %10 = load i32, ptr %4, align 4, !tbaa !8
  %11 = load ptr, ptr %5, align 8, !tbaa !80
  %12 = getelementptr inbounds nuw %struct.Vec_Mem_t_, ptr %11, i32 0, i32 2
  store i32 %10, ptr %12, align 8, !tbaa !88
  %13 = load ptr, ptr %5, align 8, !tbaa !80
  %14 = getelementptr inbounds nuw %struct.Vec_Mem_t_, ptr %13, i32 0, i32 2
  %15 = load i32, ptr %14, align 8, !tbaa !88
  %16 = shl i32 1, %15
  %17 = sub nsw i32 %16, 1
  %18 = load ptr, ptr %5, align 8, !tbaa !80
  %19 = getelementptr inbounds nuw %struct.Vec_Mem_t_, ptr %18, i32 0, i32 3
  store i32 %17, ptr %19, align 4, !tbaa !89
  %20 = load ptr, ptr %5, align 8, !tbaa !80
  %21 = getelementptr inbounds nuw %struct.Vec_Mem_t_, ptr %20, i32 0, i32 5
  store i32 -1, ptr %21, align 4, !tbaa !90
  %22 = load ptr, ptr %5, align 8, !tbaa !80
  call void @llvm.lifetime.end.p0(i64 8, ptr %5) #12
  ret ptr %22
}

; Function Attrs: inlinehint nounwind uwtable
define internal i32 @Abc_TtWordNum(i32 noundef %0) #2 {
  %2 = alloca i32, align 4
  store i32 %0, ptr %2, align 4, !tbaa !8
  %3 = load i32, ptr %2, align 4, !tbaa !8
  %4 = icmp sle i32 %3, 6
  br i1 %4, label %5, label %6

5:                                                ; preds = %1
  br label %10

6:                                                ; preds = %1
  %7 = load i32, ptr %2, align 4, !tbaa !8
  %8 = sub nsw i32 %7, 6
  %9 = shl i32 1, %8
  br label %10

10:                                               ; preds = %6, %5
  %11 = phi i32 [ 1, %5 ], [ %9, %6 ]
  ret i32 %11
}

; Function Attrs: nounwind uwtable
define ptr @Abc_TtHieManStart(i32 noundef %0, i32 noundef %1) #0 {
  %3 = alloca ptr, align 8
  %4 = alloca i32, align 4
  %5 = alloca i32, align 4
  %6 = alloca ptr, align 8
  %7 = alloca i32, align 4
  %8 = alloca i32, align 4
  store i32 %0, ptr %4, align 4, !tbaa !8
  store i32 %1, ptr %5, align 4, !tbaa !8
  call void @llvm.lifetime.start.p0(i64 8, ptr %6) #12
  store ptr null, ptr %6, align 8, !tbaa !74
  call void @llvm.lifetime.start.p0(i64 4, ptr %7) #12
  %9 = load i32, ptr %5, align 4, !tbaa !8
  %10 = icmp sgt i32 %9, 5
  br i1 %10, label %11, label %13

11:                                               ; preds = %2
  %12 = load ptr, ptr %6, align 8, !tbaa !74
  store ptr %12, ptr %3, align 8
  store i32 1, ptr %8, align 4
  br label %57

13:                                               ; preds = %2
  %14 = call noalias ptr @calloc(i64 noundef 1, i64 noundef 120) #13
  store ptr %14, ptr %6, align 8, !tbaa !74
  %15 = load i32, ptr %5, align 4, !tbaa !8
  %16 = sub nsw i32 %15, 1
  %17 = load ptr, ptr %6, align 8, !tbaa !74
  %18 = getelementptr inbounds nuw %struct.Abc_TtHieMan_t_, ptr %17, i32 0, i32 0
  store i32 %16, ptr %18, align 8, !tbaa !76
  %19 = load i32, ptr %4, align 4, !tbaa !8
  %20 = call i32 @Abc_TtWordNum(i32 noundef %19)
  %21 = load ptr, ptr %6, align 8, !tbaa !74
  %22 = getelementptr inbounds nuw %struct.Abc_TtHieMan_t_, ptr %21, i32 0, i32 1
  store i32 %20, ptr %22, align 4, !tbaa !79
  store i32 0, ptr %7, align 4, !tbaa !8
  br label %23

23:                                               ; preds = %49, %13
  %24 = load i32, ptr %7, align 4, !tbaa !8
  %25 = load i32, ptr %5, align 4, !tbaa !8
  %26 = icmp slt i32 %24, %25
  br i1 %26, label %27, label %52

27:                                               ; preds = %23
  %28 = load ptr, ptr %6, align 8, !tbaa !74
  %29 = getelementptr inbounds nuw %struct.Abc_TtHieMan_t_, ptr %28, i32 0, i32 1
  %30 = load i32, ptr %29, align 4, !tbaa !79
  %31 = call ptr @Vec_MemAlloc(i32 noundef %30, i32 noundef 12)
  %32 = load ptr, ptr %6, align 8, !tbaa !74
  %33 = getelementptr inbounds nuw %struct.Abc_TtHieMan_t_, ptr %32, i32 0, i32 2
  %34 = load i32, ptr %7, align 4, !tbaa !8
  %35 = sext i32 %34 to i64
  %36 = getelementptr inbounds [5 x ptr], ptr %33, i64 0, i64 %35
  store ptr %31, ptr %36, align 8, !tbaa !80
  %37 = load ptr, ptr %6, align 8, !tbaa !74
  %38 = getelementptr inbounds nuw %struct.Abc_TtHieMan_t_, ptr %37, i32 0, i32 2
  %39 = load i32, ptr %7, align 4, !tbaa !8
  %40 = sext i32 %39 to i64
  %41 = getelementptr inbounds [5 x ptr], ptr %38, i64 0, i64 %40
  %42 = load ptr, ptr %41, align 8, !tbaa !80
  call void @Vec_MemHashAlloc(ptr noundef %42, i32 noundef 10000)
  %43 = call ptr @Vec_IntAlloc(i32 noundef 1)
  %44 = load ptr, ptr %6, align 8, !tbaa !74
  %45 = getelementptr inbounds nuw %struct.Abc_TtHieMan_t_, ptr %44, i32 0, i32 3
  %46 = load i32, ptr %7, align 4, !tbaa !8
  %47 = sext i32 %46 to i64
  %48 = getelementptr inbounds [5 x ptr], ptr %45, i64 0, i64 %47
  store ptr %43, ptr %48, align 8, !tbaa !82
  br label %49

49:                                               ; preds = %27
  %50 = load i32, ptr %7, align 4, !tbaa !8
  %51 = add nsw i32 %50, 1
  store i32 %51, ptr %7, align 4, !tbaa !8
  br label %23, !llvm.loop !83

52:                                               ; preds = %23
  %53 = call ptr @Vec_IntAlloc(i32 noundef 2500)
  %54 = load ptr, ptr %6, align 8, !tbaa !74
  %55 = getelementptr inbounds nuw %struct.Abc_TtHieMan_t_, ptr %54, i32 0, i32 5
  store ptr %53, ptr %55, align 8, !tbaa !84
  %56 = load ptr, ptr %6, align 8, !tbaa !74
  store ptr %56, ptr %3, align 8
  store i32 1, ptr %8, align 4
  br label %57

57:                                               ; preds = %52, %11
  call void @llvm.lifetime.end.p0(i64 4, ptr %7) #12
  call void @llvm.lifetime.end.p0(i64 8, ptr %6) #12
  %58 = load ptr, ptr %3, align 8
  ret ptr %58
}