; Function Attrs: nofree nounwind memory(write, argmem: none, inaccessiblemem: readwrite) uwtable
define noalias noundef ptr @Abc_TtHieManStart(i32 noundef %0, i32 noundef %1) local_unnamed_addr #9 {
  %3 = icmp sgt i32 %1, 5
  br i1 %3, label %53, label %4

4:                                                ; preds = %2
  %5 = tail call noalias dereferenceable_or_null(120) ptr @calloc(i64 noundef 1, i64 noundef 120) #22
  %6 = add nsw i32 %1, -1
  store i32 %6, ptr %5, align 8, !tbaa !62
  %7 = icmp slt i32 %0, 7
  %8 = add nsw i32 %0, -6
  %9 = shl nuw i32 1, %8
  %10 = select i1 %7, i32 1, i32 %9
  %11 = getelementptr inbounds nuw i8, ptr %5, i64 4
  store i32 %10, ptr %11, align 4, !tbaa !66
  %12 = icmp sgt i32 %1, 0
  br i1 %12, label %.lr.ph, label %._crit_edge

.lr.ph:                                           ; preds = %4
  %13 = getelementptr inbounds nuw i8, ptr %5, i64 8
  %14 = getelementptr inbounds nuw i8, ptr %5, i64 48
  %wide.trip.count = zext nneg i32 %1 to i64
  br label %15

15:                                               ; preds = %.lr.ph, %Vec_MemHashAlloc.exit
  %indvars.iv = phi i64 [ 0, %.lr.ph ], [ %indvars.iv.next, %Vec_MemHashAlloc.exit ]
  %16 = tail call noalias dereferenceable_or_null(48) ptr @calloc(i64 noundef 1, i64 noundef 48) #22
  store i32 %10, ptr %16, align 8, !tbaa !67
  %17 = getelementptr inbounds nuw i8, ptr %16, i64 8
  store i32 12, ptr %17, align 8, !tbaa !70
  %18 = getelementptr inbounds nuw i8, ptr %16, i64 12
  store i32 4095, ptr %18, align 4, !tbaa !71
  %19 = getelementptr inbounds nuw i8, ptr %16, i64 20
  store i32 -1, ptr %19, align 4, !tbaa !72
  %20 = getelementptr inbounds nuw [5 x ptr], ptr %13, i64 0, i64 %indvars.iv
  store ptr %16, ptr %20, align 8, !tbaa !73
  br label %.loopexit.i.i

.loopexit.i.i:                                    ; preds = %.loopexit.i.i.backedge, %15
  %.012.i.i = phi i32 [ 9999, %15 ], [ %21, %.loopexit.i.i.backedge ]
  %21 = add i32 %.012.i.i, 1
  %22 = and i32 %.012.i.i, 1
  %.not.not.i.i = icmp eq i32 %22, 0
  br i1 %.not.not.i.i, label %.preheader.i.i, label %.loopexit.i.i.backedge

.loopexit.i.i.backedge:                           ; preds = %.lr.ph.i.i, %.loopexit.i.i
  br label %.loopexit.i.i, !llvm.loop !75

.preheader.i.i:                                   ; preds = %.loopexit.i.i
  %.not15.i.i = icmp ult i32 %21, 9
  br i1 %.not15.i.i, label %Abc_PrimeCudd.exit.i, label %.lr.ph.i.i

23:                                               ; preds = %.lr.ph.i.i
  %24 = add nuw nsw i32 %.01116.i.i, 2
  %25 = mul nuw nsw i32 %24, %24
  %.not.i.i = icmp ugt i32 %25, %21
  br i1 %.not.i.i, label %Abc_PrimeCudd.exit.i, label %.lr.ph.i.i, !llvm.loop !76

.lr.ph.i.i:                                       ; preds = %.preheader.i.i, %23
  %.01116.i.i = phi i32 [ %24, %23 ], [ 3, %.preheader.i.i ]
  %26 = urem i32 %21, %.01116.i.i
  %27 = icmp eq i32 %26, 0
  br i1 %27, label %.loopexit.i.i.backedge, label %23, !llvm.loop !75

Abc_PrimeCudd.exit.i:                             ; preds = %.preheader.i.i, %23
  %28 = tail call noalias dereferenceable_or_null(16) ptr @malloc(i64 noundef 16) #23
  %or.cond.i.i.i = icmp ult i32 %.012.i.i, 15
  %spec.store.select.i.i.i = select i1 %or.cond.i.i.i, i32 16, i32 %21
  store i32 %spec.store.select.i.i.i, ptr %28, align 8, !tbaa !77
  %29 = getelementptr inbounds nuw i8, ptr %28, i64 4
  %30 = sext i32 %spec.store.select.i.i.i to i64
  %31 = shl nsw i64 %30, 2
  %32 = tail call noalias ptr @malloc(i64 noundef %31) #23
  %33 = getelementptr inbounds nuw i8, ptr %28, i64 8
  store ptr %32, ptr %33, align 8, !tbaa !80
  store i32 %21, ptr %29, align 4, !tbaa !81
  %.not.i3.i = icmp eq ptr %32, null
  br i1 %.not.i3.i, label %Vec_MemHashAlloc.exit, label %34

34:                                               ; preds = %Abc_PrimeCudd.exit.i
  %35 = sext i32 %21 to i64
  %36 = shl nsw i64 %35, 2
  tail call void @llvm.memset.p0.i64(ptr nonnull align 4 %32, i8 -1, i64 %36, i1 false)
  br label %Vec_MemHashAlloc.exit

Vec_MemHashAlloc.exit:                            ; preds = %Abc_PrimeCudd.exit.i, %34
  %37 = getelementptr inbounds nuw i8, ptr %16, i64 32
  store ptr %28, ptr %37, align 8, !tbaa !82
  %38 = tail call noalias dereferenceable_or_null(16) ptr @malloc(i64 noundef 16) #23
  %39 = getelementptr inbounds nuw i8, ptr %38, i64 4
  store i32 0, ptr %39, align 4, !tbaa !81
  store i32 10000, ptr %38, align 8, !tbaa !77
  %40 = tail call noalias dereferenceable_or_null(40000) ptr @malloc(i64 noundef 40000) #23
  %41 = getelementptr inbounds nuw i8, ptr %38, i64 8
  store ptr %40, ptr %41, align 8, !tbaa !80
  %42 = getelementptr inbounds nuw i8, ptr %16, i64 40
  store ptr %38, ptr %42, align 8, !tbaa !83
  %43 = tail call noalias dereferenceable_or_null(16) ptr @malloc(i64 noundef 16) #23
  %44 = getelementptr inbounds nuw i8, ptr %43, i64 4
  store i32 0, ptr %44, align 4, !tbaa !81
  store i32 16, ptr %43, align 8, !tbaa !77
  %45 = tail call noalias dereferenceable_or_null(64) ptr @malloc(i64 noundef 64) #23
  %46 = getelementptr inbounds nuw i8, ptr %43, i64 8
  store ptr %45, ptr %46, align 8, !tbaa !80
  %47 = getelementptr inbounds nuw [5 x ptr], ptr %14, i64 0, i64 %indvars.iv
  store ptr %43, ptr %47, align 8, !tbaa !84
  %indvars.iv.next = add nuw nsw i64 %indvars.iv, 1
  %exitcond.not = icmp eq i64 %indvars.iv.next, %wide.trip.count
  br i1 %exitcond.not, label %._crit_edge, label %15, !llvm.loop !85

._crit_edge:                                      ; preds = %Vec_MemHashAlloc.exit, %4
  %48 = tail call noalias dereferenceable_or_null(16) ptr @malloc(i64 noundef 16) #23
  %49 = getelementptr inbounds nuw i8, ptr %48, i64 4
  store i32 0, ptr %49, align 4, !tbaa !81
  store i32 2500, ptr %48, align 8, !tbaa !77
  %50 = tail call noalias dereferenceable_or_null(10000) ptr @malloc(i64 noundef 10000) #23
  %51 = getelementptr inbounds nuw i8, ptr %48, i64 8
  store ptr %50, ptr %51, align 8, !tbaa !80
  %52 = getelementptr inbounds nuw i8, ptr %5, i64 112
  store ptr %48, ptr %52, align 8, !tbaa !86
  br label %53

53:                                               ; preds = %2, %._crit_edge
  %.018 = phi ptr [ %5, %._crit_edge ], [ null, %2 ]
  ret ptr %.018
}